target datalayout = "e-m:e-p270:32:32-p271:32:32-p272:64:64-i64:64-i128:128-f80:128-n8:16:32:64-S128"
target triple = "x86_64-unknown-linux-gnu"

%"class.icu_75::StringPiece" = type <{ ptr, i32, [4 x i8] }>
%"class.icu_75::LocalePriorityList" = type { ptr, i32, i32, i8, ptr }
%"class.icu_75::LocalePriorityList::Iterator" = type <{ %"class.icu_75::Locale::Iterator", ptr, i32, i32, i32, [4 x i8] }>
%"class.icu_75::Locale::Iterator" = type { ptr }

@_ZTVN6icu_756Locale8IteratorE = external unnamed_addr constant { [6 x ptr] }, align 8

; Function Attrs: mustprogress nounwind uwtable
define linkonce_odr noundef i32 @_ZNK6icu_7518LocalePriorityList9getLengthEv(ptr noundef nonnull align 8 dereferenceable(32) %this) #0 comdat align 2 {
entry:
  %this.addr = alloca ptr, align 8
  store ptr %this, ptr %this.addr, align 8
  %this1 = load ptr, ptr %this.addr, align 8
  %listLength = getelementptr inbounds %"class.icu_75::LocalePriorityList", ptr %this1, i32 0, i32 1
  %0 = load i32, ptr %listLength, align 8
  %numRemoved = getelementptr inbounds %"class.icu_75::LocalePriorityList", ptr %this1, i32 0, i32 2
  %1 = load i32, ptr %numRemoved, align 4
  %sub = sub nsw i32 %0, %1
  ret i32 %sub
}

; Function Attrs: mustprogress nounwind uwtable
define linkonce_odr void @_ZN6icu_756Locale8IteratorC2Ev(ptr noundef nonnull align 8 dereferenceable(8) %this) unnamed_addr #0 comdat align 2 {
entry:
  %this.addr = alloca ptr, align 8
  store ptr %this, ptr %this.addr, align 8
  %this1 = load ptr, ptr %this.addr, align 8
  store ptr getelementptr inbounds ({ [6 x ptr] }, ptr @_ZTVN6icu_756Locale8IteratorE, i32 0, i32 0, i32 2), ptr %this1, align 8
  ret void
}

; Function Attrs: mustprogress uwtable
define linkonce_odr void @_ZN6icu_7518LocalePriorityList8IteratorC2ERKS0_(ptr noundef nonnull align 8 dereferenceable(28) %this, ptr noundef nonnull align 8 dereferenceable(32) %list) unnamed_addr #1 comdat align 2 personality ptr @__gxx_personality_v0 {
entry:
  %this.addr = alloca ptr, align 8
  %list.addr = alloca ptr, align 8
  %exn.slot = alloca ptr, align 8
  %ehselector.slot = alloca i32, align 4
  store ptr %this, ptr %this.addr, align 8
  store ptr %list, ptr %list.addr, align 8
  %this1 = load ptr, ptr %this.addr, align 8
  call void @_ZN6icu_756Locale8IteratorC2Ev(ptr noundef nonnull align 8 dereferenceable(8) %this1) #11
  store ptr getelementptr inbounds ({ [6 x ptr] }, ptr @_ZTVN6icu_7518LocalePriorityList8IteratorE, i32 0, i32 0, i32 2), ptr %this1, align 8
  %list2 = getelementptr inbounds %"class.icu_75::LocalePriorityList::Iterator", ptr %this1, i32 0, i32 1
  %0 = load ptr, ptr %list.addr, align 8
  store ptr %0, ptr %list2, align 8
  %index = getelementptr inbounds %"class.icu_75::LocalePriorityList::Iterator", ptr %this1, i32 0, i32 2
  store i32 0, ptr %index, align 8
  %count = getelementptr inbounds %"class.icu_75::LocalePriorityList::Iterator", ptr %this1, i32 0, i32 3
  store i32 0, ptr %count, align 4
  %length = getelementptr inbounds %"class.icu_75::LocalePriorityList::Iterator", ptr %this1, i32 0, i32 4
  %1 = load ptr, ptr %list.addr, align 8
  %call = invoke noundef i32 @_ZNK6icu_7518LocalePriorityList9getLengthEv(ptr noundef nonnull align 8 dereferenceable(32) %1)
          to label %invoke.cont unwind label %lpad

invoke.cont:                                      ; preds = %entry
  store i32 %call, ptr %length, align 8
  ret void

lpad:                                             ; preds = %entry
  %2 = landingpad { ptr, i32 }
          cleanup
  %3 = extractvalue { ptr, i32 } %2, 0
  store ptr %3, ptr %exn.slot, align 8
  %4 = extractvalue { ptr, i32 } %2, 1
  store i32 %4, ptr %ehselector.slot, align 4
  call void @_ZN6icu_756Locale8IteratorD2Ev(ptr noundef nonnull align 8 dereferenceable(8) %this1) #11
  br label %eh.resume

eh.resume:                                        ; preds = %lpad
  %exn = load ptr, ptr %exn.slot, align 8
  %sel = load i32, ptr %ehselector.slot, align 4
  %lpad.val = insertvalue { ptr, i32 } poison, ptr %exn, 0
  %lpad.val3 = insertvalue { ptr, i32 } %lpad.val, i32 %sel, 1
  resume { ptr, i32 } %lpad.val3
}

; Function Attrs: mustprogress nounwind uwtable
define linkonce_odr void @_ZN6icu_7518LocalePriorityList8IteratorD2Ev(ptr noundef nonnull align 8 dereferenceable(28) %this) unnamed_addr #0 comdat align 2 {
entry:
  %this.addr = alloca ptr, align 8
  store ptr %this, ptr %this.addr, align 8
  %this1 = load ptr, ptr %this.addr, align 8
  call void @_ZN6icu_756Locale8IteratorD2Ev(ptr noundef nonnull align 8 dereferenceable(8) %this1) #11
  ret void
}

; Function Attrs: mustprogress uwtable
define linkonce_odr void @_ZNK6icu_7518LocalePriorityList8iteratorEv(ptr noalias sret(%"class.icu_75::LocalePriorityList::Iterator") align 8 %agg.result, ptr noundef nonnull align 8 dereferenceable(32) %this) #1 comdat align 2 {
entry:
  %result.ptr = alloca ptr, align 8
  %this.addr = alloca ptr, align 8
  store ptr %agg.result, ptr %result.ptr, align 8
  store ptr %this, ptr %this.addr, align 8
  %this1 = load ptr, ptr %this.addr, align 8
  call void @_ZN6icu_7518LocalePriorityList8IteratorC2ERKS0_(ptr noundef nonnull align 8 dereferenceable(28) %agg.result, ptr noundef nonnull align 8 dereferenceable(32) %this1)
  ret void
}

; Function Attrs: mustprogress uwtable
define noundef ptr @_ZNK6icu_7513LocaleMatcher25getBestMatchForListStringENS_11StringPieceER10UErrorCode(ptr noundef nonnull align 8 dereferenceable(104) %this, ptr %desiredLocaleList.coerce0, i32 %desiredLocaleList.coerce1, ptr noundef nonnull align 4 dereferenceable(4) %errorCode) #1 align 2 personality ptr @__gxx_personality_v0 {
entry:
  %desiredLocaleList = alloca %"class.icu_75::StringPiece", align 8
  %this.addr = alloca ptr, align 8
  %errorCode.addr = alloca ptr, align 8
  %list = alloca %"class.icu_75::LocalePriorityList", align 8
  %agg.tmp = alloca %"class.icu_75::StringPiece", align 8
  %iter = alloca %"class.icu_75::LocalePriorityList::Iterator", align 8
  %exn.slot = alloca ptr, align 8
  %ehselector.slot = alloca i32, align 4
  %0 = getelementptr inbounds { ptr, i32 }, ptr %desiredLocaleList, i32 0, i32 0
  store ptr %desiredLocaleList.coerce0, ptr %0, align 8
  %1 = getelementptr inbounds { ptr, i32 }, ptr %desiredLocaleList, i32 0, i32 1
  store i32 %desiredLocaleList.coerce1, ptr %1, align 8
  store ptr %this, ptr %this.addr, align 8
  store ptr %errorCode, ptr %errorCode.addr, align 8
  %this1 = load ptr, ptr %this.addr, align 8
  call void @llvm.memcpy.p0.p0.i64(ptr align 8 %agg.tmp, ptr align 8 %desiredLocaleList, i64 16, i1 false)
  %2 = load ptr, ptr %errorCode.addr, align 8
  %3 = getelementptr inbounds { ptr, i32 }, ptr %agg.tmp, i32 0, i32 0
  %4 = load ptr, ptr %3, align 8
  %5 = getelementptr inbounds { ptr, i32 }, ptr %agg.tmp, i32 0, i32 1
  %6 = load i32, ptr %5, align 8
  call void @_ZN6icu_7518LocalePriorityListC1ENS_11StringPieceER10UErrorCode(ptr noundef nonnull align 8 dereferenceable(32) %list, ptr %4, i32 %6, ptr noundef nonnull align 4 dereferenceable(4) %2)
  invoke void @_ZNK6icu_7518LocalePriorityList8iteratorEv(ptr sret(%"class.icu_75::LocalePriorityList::Iterator") align 8 %iter, ptr noundef nonnull align 8 dereferenceable(32) %list)
          to label %invoke.cont unwind label %lpad

invoke.cont:                                      ; preds = %entry
  %7 = load ptr, ptr %errorCode.addr, align 8
  %call = invoke noundef ptr @_ZNK6icu_7513LocaleMatcher12getBestMatchERNS_6Locale8IteratorER10UErrorCode(ptr noundef nonnull align 8 dereferenceable(104) %this1, ptr noundef nonnull align 8 dereferenceable(8) %iter, ptr noundef nonnull align 4 dereferenceable(4) %7)
          to label %invoke.cont3 unwind label %lpad2

invoke.cont3:                                     ; preds = %invoke.cont
  call void @_ZN6icu_7518LocalePriorityList8IteratorD2Ev(ptr noundef nonnull align 8 dereferenceable(28) %iter) #11
  call void @_ZN6icu_7518LocalePriorityListD1Ev(ptr noundef nonnull align 8 dereferenceable(32) %list) #11
  ret ptr %call

lpad:                                             ; preds = %entry
  %8 = landingpad { ptr, i32 }
          cleanup
  %9 = extractvalue { ptr, i32 } %8, 0
  store ptr %9, ptr %exn.slot, align 8
  %10 = extractvalue { ptr, i32 } %8, 1
  store i32 %10, ptr %ehselector.slot, align 4
  br label %ehcleanup

lpad2:                                            ; preds = %invoke.cont
  %11 = landingpad { ptr, i32 }
          cleanup
  %12 = extractvalue { ptr, i32 } %11, 0
  store ptr %12, ptr %exn.slot, align 8
  %13 = extractvalue { ptr, i32 } %11, 1
  store i32 %13, ptr %ehselector.slot, align 4
  call void @_ZN6icu_7518LocalePriorityList8IteratorD2Ev(ptr noundef nonnull align 8 dereferenceable(28) %iter) #11
  br label %ehcleanup

ehcleanup:                                        ; preds = %lpad2, %lpad
  call void @_ZN6icu_7518LocalePriorityListD1Ev(ptr noundef nonnull align 8 dereferenceable(32) %list) #11
  br label %eh.resume

eh.resume:                                        ; preds = %ehcleanup
  %exn = load ptr, ptr %exn.slot, align 8
  %sel = load i32, ptr %ehselector.slot, align 4
  %lpad.val = insertvalue { ptr, i32 } poison, ptr %exn, 0
  %lpad.val4 = insertvalue { ptr, i32 } %lpad.val, i32 %sel, 1
  resume { ptr, i32 } %lpad.val4
}