; Function Attrs: mustprogress uwtable
define noundef ptr @_ZNK6icu_7513LocaleMatcher25getBestMatchForListStringENS_11StringPieceER10UErrorCode(ptr nocapture noundef nonnull readonly align 8 dereferenceable(104) %this, ptr %desiredLocaleList.coerce0, i32 %desiredLocaleList.coerce1, ptr noundef nonnull align 4 dereferenceable(4) %errorCode) local_unnamed_addr #2 align 2 personality ptr @__gxx_personality_v0 {
invoke.cont:
  %list = alloca %"class.icu_75::LocalePriorityList", align 8
  %iter = alloca %"class.icu_75::LocalePriorityList::Iterator", align 8
  call void @_ZN6icu_7518LocalePriorityListC1ENS_11StringPieceER10UErrorCode(ptr noundef nonnull align 8 dereferenceable(32) %list, ptr %desiredLocaleList.coerce0, i32 %desiredLocaleList.coerce1, ptr noundef nonnull align 4 dereferenceable(4) %errorCode)
  call void @llvm.experimental.noalias.scope.decl(metadata !36)
  store ptr getelementptr inbounds ({ [6 x ptr] }, ptr @_ZTVN6icu_7518LocalePriorityList8IteratorE, i64 0, i32 0, i64 2), ptr %iter, align 8, !alias.scope !36
  %list2.i.i = getelementptr inbounds i8, ptr %iter, i64 8
  store ptr %list, ptr %list2.i.i, align 8, !alias.scope !36
  %index.i.i = getelementptr inbounds i8, ptr %iter, i64 16
  store i32 0, ptr %index.i.i, align 8, !alias.scope !36
  %count.i.i = getelementptr inbounds i8, ptr %iter, i64 20
  store i32 0, ptr %count.i.i, align 4, !alias.scope !36
  %length.i.i = getelementptr inbounds i8, ptr %iter, i64 24
  %listLength.i.i.i = getelementptr inbounds i8, ptr %list, i64 8
  %0 = load i32, ptr %listLength.i.i.i, align 8, !noalias !36
  %numRemoved.i.i.i = getelementptr inbounds i8, ptr %list, i64 12
  %1 = load i32, ptr %numRemoved.i.i.i, align 4, !noalias !36
  %sub.i.i.i = sub nsw i32 %0, %1
  store i32 %sub.i.i.i, ptr %length.i.i, align 8, !alias.scope !36
  %call = invoke noundef ptr @_ZNK6icu_7513LocaleMatcher12getBestMatchERNS_6Locale8IteratorER10UErrorCode(ptr noundef nonnull align 8 dereferenceable(104) %this, ptr noundef nonnull align 8 dereferenceable(8) %iter, ptr noundef nonnull align 4 dereferenceable(4) %errorCode)
          to label %invoke.cont3 unwind label %lpad2

invoke.cont3:                                     ; preds = %invoke.cont
  call void @_ZN6icu_756Locale8IteratorD2Ev(ptr noundef nonnull align 8 dereferenceable(8) %iter) #15
  call void @_ZN6icu_7518LocalePriorityListD1Ev(ptr noundef nonnull align 8 dereferenceable(32) %list) #15
  ret ptr %call

lpad2:                                            ; preds = %invoke.cont
  %2 = landingpad { ptr, i32 }
          cleanup
  call void @_ZN6icu_756Locale8IteratorD2Ev(ptr noundef nonnull align 8 dereferenceable(8) %iter) #15
  call void @_ZN6icu_7518LocalePriorityListD1Ev(ptr noundef nonnull align 8 dereferenceable(32) %list) #15
  resume { ptr, i32 } %2
}